target datalayout = "e-m:e-p270:32:32-p271:32:32-p272:64:64-i64:64-i128:128-f80:128-n8:16:32:64-S128"
target triple = "x86_64-pc-linux-gnu"

@opt_verbosity = internal global i32 6, align 4
@bio_err = external global ptr, align 8
@.str.351 = private unnamed_addr constant [22 x i8] c"../openssl/apps/cmp.c\00", align 1
@.str.352 = private unnamed_addr constant [6 x i8] c"error\00", align 1
@.str.353 = private unnamed_addr constant [1 x i8] zeroinitializer, align 1
@bio_out = external global ptr, align 8
@.str.355 = private unnamed_addr constant [5 x i8] c"info\00", align 1
@.str.631 = private unnamed_addr constant [3 x i8] c"wb\00", align 1
@.str.648 = private unnamed_addr constant [74 x i8] c"%s:%s:%d:CMP %s: error saving keySpec from genp: cannot open file %s%s%s\0A\00", align 1
@__func__.save_keyspec = private unnamed_addr constant [13 x i8] c"save_keyspec\00", align 1
@.str.649 = private unnamed_addr constant [75 x i8] c"%s:%s:%d:CMP %s: error saving keySpec from genp: cannot write file %s%s%s\0A\00", align 1
@.str.650 = private unnamed_addr constant [60 x i8] c"%s:%s:%d:CMP %s: stored keySpec from genp to file '%s'%s%s\0A\00", align 1

; Function Attrs: nounwind uwtable
define internal i32 @save_keyspec(ptr noundef %0, ptr noundef %1) #0 {
  %3 = alloca i32, align 4
  %4 = alloca ptr, align 8
  %5 = alloca ptr, align 8
  %6 = alloca ptr, align 8
  %7 = alloca i32, align 4
  store ptr %0, ptr %4, align 8, !tbaa !11
  store ptr %1, ptr %5, align 8, !tbaa !73
  call void @llvm.lifetime.start.p0(i64 8, ptr %6) #11
  %8 = load ptr, ptr %4, align 8, !tbaa !11
  %9 = call ptr @BIO_new_file(ptr noundef %8, ptr noundef @.str.631)
  store ptr %9, ptr %6, align 8, !tbaa !21
  %10 = load ptr, ptr %6, align 8, !tbaa !21
  %11 = icmp eq ptr %10, null
  br i1 %11, label %12, label %21

12:                                               ; preds = %2
  %13 = load i32, ptr @opt_verbosity, align 4, !tbaa !4
  %14 = icmp sgt i32 3, %13
  br i1 %14, label %15, label %16

15:                                               ; preds = %12
  br label %20

16:                                               ; preds = %12
  %17 = load ptr, ptr @bio_err, align 8, !tbaa !21
  %18 = load ptr, ptr %4, align 8, !tbaa !11
  %19 = call i32 (ptr, ptr, ...) @BIO_printf(ptr noundef %17, ptr noundef @.str.648, ptr noundef @__func__.save_keyspec, ptr noundef @.str.351, i32 noundef 2522, ptr noundef @.str.352, ptr noundef %18, ptr noundef @.str.353, ptr noundef @.str.353)
  br label %20

20:                                               ; preds = %16, %15
  store i32 0, ptr %3, align 4
  store i32 1, ptr %7, align 4
  br label %47

21:                                               ; preds = %2
  %22 = load ptr, ptr %6, align 8, !tbaa !21
  %23 = load ptr, ptr %5, align 8, !tbaa !73
  %24 = call i32 @ASN1_i2d_bio(ptr noundef @i2d_OSSL_CMP_ATAVS, ptr noundef %22, ptr noundef %23)
  %25 = icmp ne i32 %24, 0
  br i1 %25, label %35, label %26

26:                                               ; preds = %21
  %27 = load i32, ptr @opt_verbosity, align 4, !tbaa !4
  %28 = icmp sgt i32 3, %27
  br i1 %28, label %29, label %30

29:                                               ; preds = %26
  br label %34

30:                                               ; preds = %26
  %31 = load ptr, ptr @bio_err, align 8, !tbaa !21
  %32 = load ptr, ptr %4, align 8, !tbaa !11
  %33 = call i32 (ptr, ptr, ...) @BIO_printf(ptr noundef %31, ptr noundef @.str.649, ptr noundef @__func__.save_keyspec, ptr noundef @.str.351, i32 noundef 2527, ptr noundef @.str.352, ptr noundef %32, ptr noundef @.str.353, ptr noundef @.str.353)
  br label %34

34:                                               ; preds = %30, %29
  store i32 0, ptr %3, align 4
  store i32 1, ptr %7, align 4
  br label %47

35:                                               ; preds = %21
  %36 = load i32, ptr @opt_verbosity, align 4, !tbaa !4
  %37 = icmp sgt i32 6, %36
  br i1 %37, label %38, label %39

38:                                               ; preds = %35
  br label %43

39:                                               ; preds = %35
  %40 = load ptr, ptr @bio_out, align 8, !tbaa !21
  %41 = load ptr, ptr %4, align 8, !tbaa !11
  %42 = call i32 (ptr, ptr, ...) @BIO_printf(ptr noundef %40, ptr noundef @.str.650, ptr noundef @__func__.save_keyspec, ptr noundef @.str.351, i32 noundef 2530, ptr noundef @.str.355, ptr noundef %41, ptr noundef @.str.353, ptr noundef @.str.353)
  br label %43

43:                                               ; preds = %39, %38
  br label %44

44:                                               ; preds = %43
  %45 = load ptr, ptr %6, align 8, !tbaa !21
  %46 = call i32 @BIO_free(ptr noundef %45)
  store i32 1, ptr %3, align 4
  store i32 1, ptr %7, align 4
  br label %47

47:                                               ; preds = %44, %34, %20
  call void @llvm.lifetime.end.p0(i64 8, ptr %6) #11
  %48 = load i32, ptr %3, align 4
  ret i32 %48
}