; Function Attrs: nounwind uwtable
define internal fastcc range(i32 0, 2) i32 @save_keyspec(ptr noundef nonnull %0, ptr noundef nonnull %1) unnamed_addr #0 {
  %3 = tail call ptr @BIO_new_file(ptr noundef nonnull %0, ptr noundef nonnull @.str.631) #12
  %4 = icmp eq ptr %3, null
  br i1 %4, label %5, label %11

5:                                                ; preds = %2
  %6 = load i32, ptr @opt_verbosity, align 4, !tbaa !10
  %7 = icmp slt i32 %6, 3
  br i1 %7, label %26, label %8

8:                                                ; preds = %5
  %9 = load ptr, ptr @bio_err, align 8, !tbaa !12
  %10 = tail call i32 (ptr, ptr, ...) @BIO_printf(ptr noundef %9, ptr noundef nonnull @.str.648, ptr noundef nonnull @__func__.save_keyspec, ptr noundef nonnull @.str.351, i32 noundef 2522, ptr noundef nonnull @.str.352, ptr noundef nonnull %0, ptr noundef nonnull @.str.353, ptr noundef nonnull @.str.353) #12
  br label %26

11:                                               ; preds = %2
  %12 = tail call i32 @ASN1_i2d_bio(ptr noundef nonnull @i2d_OSSL_CMP_ATAVS, ptr noundef nonnull %3, ptr noundef nonnull %1) #12
  %.not = icmp eq i32 %12, 0
  %13 = load i32, ptr @opt_verbosity, align 4, !tbaa !10
  br i1 %.not, label %14, label %19

14:                                               ; preds = %11
  %15 = icmp slt i32 %13, 3
  br i1 %15, label %26, label %16

16:                                               ; preds = %14
  %17 = load ptr, ptr @bio_err, align 8, !tbaa !12
  %18 = tail call i32 (ptr, ptr, ...) @BIO_printf(ptr noundef %17, ptr noundef nonnull @.str.649, ptr noundef nonnull @__func__.save_keyspec, ptr noundef nonnull @.str.351, i32 noundef 2527, ptr noundef nonnull @.str.352, ptr noundef nonnull %0, ptr noundef nonnull @.str.353, ptr noundef nonnull @.str.353) #12
  br label %26

19:                                               ; preds = %11
  %20 = icmp slt i32 %13, 6
  br i1 %20, label %24, label %21

21:                                               ; preds = %19
  %22 = load ptr, ptr @bio_out, align 8, !tbaa !12
  %23 = tail call i32 (ptr, ptr, ...) @BIO_printf(ptr noundef %22, ptr noundef nonnull @.str.650, ptr noundef nonnull @__func__.save_keyspec, ptr noundef nonnull @.str.351, i32 noundef 2530, ptr noundef nonnull @.str.355, ptr noundef nonnull %0, ptr noundef nonnull @.str.353, ptr noundef nonnull @.str.353) #12
  br label %24

24:                                               ; preds = %21, %19
  %25 = tail call i32 @BIO_free(ptr noundef nonnull %3) #12
  br label %26

26:                                               ; preds = %16, %14, %8, %5, %24
  %.0 = phi i32 [ 1, %24 ], [ 0, %5 ], [ 0, %8 ], [ 0, %14 ], [ 0, %16 ]
  ret i32 %.0
}